target datalayout = "e-m:e-p270:32:32-p271:32:32-p272:64:64-i64:64-i128:128-f80:128-n8:16:32:64-S128"
target triple = "x86_64-pc-linux-gnu"

%struct.AVBlowfish = type { [18 x i32], [4 x [256 x i32]] }

; Function Attrs: cold nounwind optsize uwtable
define void @av_blowfish_init(ptr noundef %0, ptr noundef %1, i32 noundef %2) #2 {
  %4 = alloca ptr, align 8
  %5 = alloca ptr, align 8
  %6 = alloca i32, align 4
  %7 = alloca i32, align 4
  %8 = alloca i32, align 4
  %9 = alloca i32, align 4
  %10 = alloca i32, align 4
  %11 = alloca i32, align 4
  %12 = alloca i32, align 4
  store ptr %0, ptr %4, align 8, !tbaa !4
  store ptr %1, ptr %5, align 8, !tbaa !9
  store i32 %2, ptr %6, align 4, !tbaa !11
  call void @llvm.lifetime.start.p0(i64 4, ptr %7) #6
  call void @llvm.lifetime.start.p0(i64 4, ptr %8) #6
  call void @llvm.lifetime.start.p0(i64 4, ptr %9) #6
  call void @llvm.lifetime.start.p0(i64 4, ptr %10) #6
  call void @llvm.lifetime.start.p0(i64 4, ptr %11) #6
  call void @llvm.lifetime.start.p0(i64 4, ptr %12) #6
  %13 = load ptr, ptr %4, align 8, !tbaa !4
  %14 = getelementptr inbounds nuw %struct.AVBlowfish, ptr %13, i32 0, i32 1
  %15 = getelementptr inbounds [4 x [256 x i32]], ptr %14, i64 0, i64 0
  call void @llvm.memcpy.p0.p0.i64(ptr align 4 %15, ptr align 16 @orig_s, i64 4096, i1 false)
  store i32 0, ptr %11, align 4, !tbaa !11
  store i32 0, ptr %10, align 4, !tbaa !11
  br label %16

16:                                               ; preds = %54, %3
  %17 = load i32, ptr %10, align 4, !tbaa !11
  %18 = icmp slt i32 %17, 18
  br i1 %18, label %19, label %57

19:                                               ; preds = %16
  store i32 0, ptr %7, align 4, !tbaa !11
  store i32 0, ptr %12, align 4, !tbaa !11
  br label %20

20:                                               ; preds = %39, %19
  %21 = load i32, ptr %12, align 4, !tbaa !11
  %22 = icmp slt i32 %21, 4
  br i1 %22, label %23, label %42

23:                                               ; preds = %20
  %24 = load i32, ptr %7, align 4, !tbaa !11
  %25 = shl i32 %24, 8
  %26 = load ptr, ptr %5, align 8, !tbaa !9
  %27 = load i32, ptr %11, align 4, !tbaa !11
  %28 = sext i32 %27 to i64
  %29 = getelementptr inbounds i8, ptr %26, i64 %28
  %30 = load i8, ptr %29, align 1, !tbaa !13
  %31 = zext i8 %30 to i32
  %32 = or i32 %25, %31
  store i32 %32, ptr %7, align 4, !tbaa !11
  %33 = load i32, ptr %11, align 4, !tbaa !11
  %34 = add nsw i32 %33, 1
  store i32 %34, ptr %11, align 4, !tbaa !11
  %35 = load i32, ptr %6, align 4, !tbaa !11
  %36 = icmp sge i32 %34, %35
  br i1 %36, label %37, label %38

37:                                               ; preds = %23
  store i32 0, ptr %11, align 4, !tbaa !11
  br label %38

38:                                               ; preds = %37, %23
  br label %39

39:                                               ; preds = %38
  %40 = load i32, ptr %12, align 4, !tbaa !11
  %41 = add nsw i32 %40, 1
  store i32 %41, ptr %12, align 4, !tbaa !11
  br label %20, !llvm.loop !14

42:                                               ; preds = %20
  %43 = load i32, ptr %10, align 4, !tbaa !11
  %44 = sext i32 %43 to i64
  %45 = getelementptr inbounds [18 x i32], ptr @orig_p, i64 0, i64 %44
  %46 = load i32, ptr %45, align 4, !tbaa !11
  %47 = load i32, ptr %7, align 4, !tbaa !11
  %48 = xor i32 %46, %47
  %49 = load ptr, ptr %4, align 8, !tbaa !4
  %50 = getelementptr inbounds nuw %struct.AVBlowfish, ptr %49, i32 0, i32 0
  %51 = load i32, ptr %10, align 4, !tbaa !11
  %52 = sext i32 %51 to i64
  %53 = getelementptr inbounds [18 x i32], ptr %50, i64 0, i64 %52
  store i32 %48, ptr %53, align 4, !tbaa !11
  br label %54

54:                                               ; preds = %42
  %55 = load i32, ptr %10, align 4, !tbaa !11
  %56 = add nsw i32 %55, 1
  store i32 %56, ptr %10, align 4, !tbaa !11
  br label %16, !llvm.loop !16

57:                                               ; preds = %16
  store i32 0, ptr %9, align 4, !tbaa !11
  store i32 0, ptr %8, align 4, !tbaa !11
  store i32 0, ptr %10, align 4, !tbaa !11
  br label %58

58:                                               ; preds = %76, %57
  %59 = load i32, ptr %10, align 4, !tbaa !11
  %60 = icmp slt i32 %59, 18
  br i1 %60, label %61, label %79

61:                                               ; preds = %58
  %62 = load ptr, ptr %4, align 8, !tbaa !4
  call void @av_blowfish_crypt_ecb(ptr noundef %62, ptr noundef %8, ptr noundef %9, i32 noundef 0)
  %63 = load i32, ptr %8, align 4, !tbaa !11
  %64 = load ptr, ptr %4, align 8, !tbaa !4
  %65 = getelementptr inbounds nuw %struct.AVBlowfish, ptr %64, i32 0, i32 0
  %66 = load i32, ptr %10, align 4, !tbaa !11
  %67 = sext i32 %66 to i64
  %68 = getelementptr inbounds [18 x i32], ptr %65, i64 0, i64 %67
  store i32 %63, ptr %68, align 4, !tbaa !11
  %69 = load i32, ptr %9, align 4, !tbaa !11
  %70 = load ptr, ptr %4, align 8, !tbaa !4
  %71 = getelementptr inbounds nuw %struct.AVBlowfish, ptr %70, i32 0, i32 0
  %72 = load i32, ptr %10, align 4, !tbaa !11
  %73 = add nsw i32 %72, 1
  %74 = sext i32 %73 to i64
  %75 = getelementptr inbounds [18 x i32], ptr %71, i64 0, i64 %74
  store i32 %69, ptr %75, align 4, !tbaa !11
  br label %76

76:                                               ; preds = %61
  %77 = load i32, ptr %10, align 4, !tbaa !11
  %78 = add nsw i32 %77, 2
  store i32 %78, ptr %10, align 4, !tbaa !11
  br label %58, !llvm.loop !17

79:                                               ; preds = %58
  store i32 0, ptr %10, align 4, !tbaa !11
  br label %80

80:                                               ; preds = %112, %79
  %81 = load i32, ptr %10, align 4, !tbaa !11
  %82 = icmp slt i32 %81, 4
  br i1 %82, label %83, label %115

83:                                               ; preds = %80
  store i32 0, ptr %11, align 4, !tbaa !11
  br label %84

84:                                               ; preds = %108, %83
  %85 = load i32, ptr %11, align 4, !tbaa !11
  %86 = icmp slt i32 %85, 256
  br i1 %86, label %87, label %111

87:                                               ; preds = %84
  %88 = load ptr, ptr %4, align 8, !tbaa !4
  call void @av_blowfish_crypt_ecb(ptr noundef %88, ptr noundef %8, ptr noundef %9, i32 noundef 0)
  %89 = load i32, ptr %8, align 4, !tbaa !11
  %90 = load ptr, ptr %4, align 8, !tbaa !4
  %91 = getelementptr inbounds nuw %struct.AVBlowfish, ptr %90, i32 0, i32 1
  %92 = load i32, ptr %10, align 4, !tbaa !11
  %93 = sext i32 %92 to i64
  %94 = getelementptr inbounds [4 x [256 x i32]], ptr %91, i64 0, i64 %93
  %95 = load i32, ptr %11, align 4, !tbaa !11
  %96 = sext i32 %95 to i64
  %97 = getelementptr inbounds [256 x i32], ptr %94, i64 0, i64 %96
  store i32 %89, ptr %97, align 4, !tbaa !11
  %98 = load i32, ptr %9, align 4, !tbaa !11
  %99 = load ptr, ptr %4, align 8, !tbaa !4
  %100 = getelementptr inbounds nuw %struct.AVBlowfish, ptr %99, i32 0, i32 1
  %101 = load i32, ptr %10, align 4, !tbaa !11
  %102 = sext i32 %101 to i64
  %103 = getelementptr inbounds [4 x [256 x i32]], ptr %100, i64 0, i64 %102
  %104 = load i32, ptr %11, align 4, !tbaa !11
  %105 = add nsw i32 %104, 1
  %106 = sext i32 %105 to i64
  %107 = getelementptr inbounds [256 x i32], ptr %103, i64 0, i64 %106
  store i32 %98, ptr %107, align 4, !tbaa !11
  br label %108

108:                                              ; preds = %87
  %109 = load i32, ptr %11, align 4, !tbaa !11
  %110 = add nsw i32 %109, 2
  store i32 %110, ptr %11, align 4, !tbaa !11
  br label %84, !llvm.loop !18

111:                                              ; preds = %84
  br label %112

112:                                              ; preds = %111
  %113 = load i32, ptr %10, align 4, !tbaa !11
  %114 = add nsw i32 %113, 1
  store i32 %114, ptr %10, align 4, !tbaa !11
  br label %80, !llvm.loop !19

115:                                              ; preds = %80
  call void @llvm.lifetime.end.p0(i64 4, ptr %12) #6
  call void @llvm.lifetime.end.p0(i64 4, ptr %11) #6
  call void @llvm.lifetime.end.p0(i64 4, ptr %10) #6
  call void @llvm.lifetime.end.p0(i64 4, ptr %9) #6
  call void @llvm.lifetime.end.p0(i64 4, ptr %8) #6
  call void @llvm.lifetime.end.p0(i64 4, ptr %7) #6
  ret void
}