; Function Attrs: cold nofree norecurse nosync nounwind optsize memory(argmem: readwrite) uwtable
define void @av_blowfish_init(ptr noundef captures(none) initializes((72, 4168)) %0, ptr noundef readonly captures(none) %1, i32 noundef %2) local_unnamed_addr #2 {
  %4 = alloca i32, align 4
  %5 = alloca i32, align 4
  call void @llvm.lifetime.start.p0(i64 4, ptr nonnull %4) #7
  call void @llvm.lifetime.start.p0(i64 4, ptr nonnull %5) #7
  %6 = getelementptr inbounds nuw i8, ptr %0, i64 72
  tail call void @llvm.memcpy.p0.p0.i64(ptr noundef nonnull align 4 dereferenceable(4096) %6, ptr noundef nonnull align 16 dereferenceable(4096) @orig_s, i64 4096, i1 false)
  br label %.preheader37

.preheader37:                                     ; preds = %3, %16
  %indvars.iv = phi i64 [ 0, %3 ], [ %indvars.iv.next, %16 ]
  %.03142 = phi i32 [ 0, %3 ], [ %spec.store.select, %16 ]
  br label %7

7:                                                ; preds = %.preheader37, %7
  %.040 = phi i32 [ 0, %.preheader37 ], [ %15, %7 ]
  %.139 = phi i32 [ %.03142, %.preheader37 ], [ %spec.store.select, %7 ]
  %.03538 = phi i32 [ 0, %.preheader37 ], [ %13, %7 ]
  %8 = shl i32 %.03538, 8
  %9 = sext i32 %.139 to i64
  %10 = getelementptr inbounds i8, ptr %1, i64 %9
  %11 = load i8, ptr %10, align 1, !tbaa !4
  %12 = zext i8 %11 to i32
  %13 = or disjoint i32 %8, %12
  %14 = add nsw i32 %.139, 1
  %.not = icmp slt i32 %14, %2
  %spec.store.select = select i1 %.not, i32 %14, i32 0
  %15 = add nuw nsw i32 %.040, 1
  %exitcond.not = icmp eq i32 %15, 4
  br i1 %exitcond.not, label %16, label %7, !llvm.loop !7

16:                                               ; preds = %7
  %17 = getelementptr inbounds nuw [18 x i32], ptr @orig_p, i64 0, i64 %indvars.iv
  %18 = load i32, ptr %17, align 4, !tbaa !9
  %19 = xor i32 %18, %13
  %20 = getelementptr inbounds nuw [18 x i32], ptr %0, i64 0, i64 %indvars.iv
  store i32 %19, ptr %20, align 4, !tbaa !9
  %indvars.iv.next = add nuw nsw i64 %indvars.iv, 1
  %exitcond47.not = icmp eq i64 %indvars.iv.next, 18
  br i1 %exitcond47.not, label %21, label %.preheader37, !llvm.loop !11

21:                                               ; preds = %16
  store i32 0, ptr %5, align 4, !tbaa !9
  store i32 0, ptr %4, align 4, !tbaa !9
  br label %22

22:                                               ; preds = %21, %22
  %indvars.iv48 = phi i64 [ 0, %21 ], [ %indvars.iv.next49, %22 ]
  call void @av_blowfish_crypt_ecb(ptr noundef nonnull %0, ptr noundef nonnull %4, ptr noundef nonnull %5, i32 noundef 0)
  %23 = load i32, ptr %4, align 4, !tbaa !9
  %24 = getelementptr inbounds nuw [18 x i32], ptr %0, i64 0, i64 %indvars.iv48
  store i32 %23, ptr %24, align 4, !tbaa !9
  %25 = load i32, ptr %5, align 4, !tbaa !9
  %26 = or disjoint i64 %indvars.iv48, 1
  %27 = getelementptr inbounds nuw [18 x i32], ptr %0, i64 0, i64 %26
  store i32 %25, ptr %27, align 4, !tbaa !9
  %indvars.iv.next49 = add nuw nsw i64 %indvars.iv48, 2
  %28 = icmp samesign ult i64 %indvars.iv48, 16
  br i1 %28, label %22, label %.preheader, !llvm.loop !12

.preheader:                                       ; preds = %22, %36
  %indvars.iv54 = phi i64 [ %indvars.iv.next55, %36 ], [ 0, %22 ]
  br label %29

29:                                               ; preds = %.preheader, %29
  %indvars.iv51 = phi i64 [ 0, %.preheader ], [ %indvars.iv.next52, %29 ]
  call void @av_blowfish_crypt_ecb(ptr noundef nonnull %0, ptr noundef nonnull %4, ptr noundef nonnull %5, i32 noundef 0)
  %30 = load i32, ptr %4, align 4, !tbaa !9
  %31 = getelementptr inbounds nuw [4 x [256 x i32]], ptr %6, i64 0, i64 %indvars.iv54, i64 %indvars.iv51
  store i32 %30, ptr %31, align 4, !tbaa !9
  %32 = load i32, ptr %5, align 4, !tbaa !9
  %33 = or disjoint i64 %indvars.iv51, 1
  %34 = getelementptr inbounds nuw [4 x [256 x i32]], ptr %6, i64 0, i64 %indvars.iv54, i64 %33
  store i32 %32, ptr %34, align 4, !tbaa !9
  %indvars.iv.next52 = add nuw nsw i64 %indvars.iv51, 2
  %35 = icmp samesign ult i64 %indvars.iv51, 254
  br i1 %35, label %29, label %36, !llvm.loop !13

36:                                               ; preds = %29
  %indvars.iv.next55 = add nuw nsw i64 %indvars.iv54, 1
  %exitcond57.not = icmp eq i64 %indvars.iv.next55, 4
  br i1 %exitcond57.not, label %37, label %.preheader, !llvm.loop !14

37:                                               ; preds = %36
  call void @llvm.lifetime.end.p0(i64 4, ptr nonnull %5) #7
  call void @llvm.lifetime.end.p0(i64 4, ptr nonnull %4) #7
  ret void
}